(lp0
(S'cppflags'
p1
ccopy_reg
_reconstructor
p2
(cino.utils
SpaceList
p3
c__builtin__
list
p4
(lp5
S'-mmcu=atmega328p'
p6
aS'-DF_CPU=16000000L'
p7
aS'-DARDUINO=105'
p8
aS'-I/Applications/Arduino.app/Contents/Resources/Java/hardware/arduino/cores/arduino'
p9
aS'-ffunction-sections'
p10
aS'-fdata-sections'
p11
aS'-g'
p12
aS'-Os'
p13
aS'-w'
p14
aS'-I/Applications/Arduino.app/Contents/Resources/Java/hardware/arduino/variants/eightanaloginputs'
p15
aS'-I/Applications/Arduino.app/Contents/Resources/Java/hardware/arduino/cores/arduino'
p16
aS'-I/Applications/Arduino.app/Contents/Resources/Java/hardware/arduino/cores/arduino/avr-libc'
p17
atp18
Rp19
tp20
a(S'objcopy'
p21
S'/Applications/Arduino.app/Contents/Resources/Java/hardware/tools/avr/bin/avr-objcopy'
p22
tp23
a(S'version.txt'
p24
S'/Applications/Arduino.app/Contents/Resources/Java/lib/version.txt'
p25
tp26
a(S'used_libs'
p27
(lp28
S'/Applications/Arduino.app/Contents/Resources/Java/hardware/arduino/cores/arduino'
p29
atp30
a(S'cc'
p31
S'/Applications/Arduino.app/Contents/Resources/Java/hardware/tools/avr/bin/avr-gcc'
p32
tp33
a(S'make'
p34
S'/Applications/Arduino.app/Contents/Resources/Java/hardware/tools/avr/bin/make'
p35
tp36
a(S'build_dir'
p37
S'.build/mini328'
p38
tp39
a(S'arduino_core_dir'
p40
g29
tp41
a(S'boards.txt'
p42
S'/Applications/Arduino.app/Contents/Resources/Java/hardware/arduino/boards.txt'
p43
tp44
a(S'cxxflags'
p45
g2
(g3
g4
(lp46
S'-fno-exceptions'
p47
atp48
Rp49
tp50
a(S'arduino_variants_dir'
p51
S'/Applications/Arduino.app/Contents/Resources/Java/hardware/arduino/variants'
p52
tp53
a(S'deps'
p54
g2
(g3
g4
(lp55
S'.build/mini328/src/dependencies.d'
p56
aS'.build/mini328/arduino/dependencies.d'
p57
atp58
Rp59
tp60
a(S'ar'
p61
S'/Applications/Arduino.app/Contents/Resources/Java/hardware/tools/avr/bin/avr-ar'
p62
tp63
a(S'names'
p64
(dp65
S'cpp'
p66
S'%s.cpp'
p67
sS'obj'
p68
S'%s.o'
p69
sS'deps'
p70
S'%s.d'
p71
sS'lib'
p72
S'lib%s.a'
p73
stp74
a(S'cflags'
p75
g2
(g3
g4
(lp76
tp77
Rp78
tp79
a(S'ldflags'
p80
g2
(g3
g4
(lp81
g6
aS'-Wl,-Os'
p82
aS'-Wl,--gc-sections'
p83
atp84
Rp85
tp86
a(S'arduino_libraries_dir'
p87
S'/Applications/Arduino.app/Contents/Resources/Java/libraries'
p88
tp89
a(S'arduino_lib_version'
p90
g2
(cino.environment
Version
p91
c__builtin__
tuple
p92
(I1
I0
I5
tp93
tp94
Rp95
tp96
a(S'arduino_dist_dir'
p97
S'Leonardo'
p98
tp99
a(S'board_models'
p100
cino.environment
BoardModels
p101
((lp102
(lp103
S'uno'
p104
a(dp105
S'bootloader'
p106
(dp107
S'extended_fuses'
p108
S'0x05'
p109
sS'high_fuses'
p110
S'0xde'
p111
sS'low_fuses'
p112
S'0xff'
p113
sS'lock_bits'
p114
S'0x0F'
p115
sS'file'
p116
S'optiboot_atmega328.hex'
p117
sS'path'
p118
S'optiboot'
p119
sS'unlock_bits'
p120
S'0x3F'
p121
ssS'build'
p122
(dp123
S'core'
p124
S'arduino'
p125
sS'mcu'
p126
S'atmega328p'
p127
sS'f_cpu'
p128
S'16000000L'
p129
sS'variant'
p130
S'standard'
p131
ssS'name'
p132
S'Arduino Uno'
p133
sS'upload'
p134
(dp135
S'speed'
p136
S'115200'
p137
sS'maximum_size'
p138
S'32256'
p139
sS'protocol'
p140
S'arduino'
p141
ssaa(lp142
S'atmega328'
p143
a(dp144
S'bootloader'
p145
(dp146
S'extended_fuses'
p147
S'0x05'
p148
sS'high_fuses'
p149
S'0xDA'
p150
sS'low_fuses'
p151
S'0xFF'
p152
sS'lock_bits'
p153
S'0x0F'
p154
sS'file'
p155
S'ATmegaBOOT_168_atmega328.hex'
p156
sS'path'
p157
S'atmega'
p158
sS'unlock_bits'
p159
S'0x3F'
p160
ssS'build'
p161
(dp162
S'core'
p163
S'arduino'
p164
sS'mcu'
p165
S'atmega328p'
p166
sS'f_cpu'
p167
S'16000000L'
p168
sS'variant'
p169
S'standard'
p170
ssS'name'
p171
S'Arduino Duemilanove w/ ATmega328'
p172
sS'upload'
p173
(dp174
S'speed'
p175
S'57600'
p176
sS'maximum_size'
p177
S'30720'
p178
sS'protocol'
p179
S'arduino'
p180
ssaa(lp181
S'diecimila'
p182
a(dp183
S'bootloader'
p184
(dp185
S'extended_fuses'
p186
S'0x00'
p187
sS'high_fuses'
p188
S'0xdd'
p189
sS'low_fuses'
p190
S'0xff'
p191
sS'lock_bits'
p192
S'0x0F'
p193
sS'file'
p194
S'ATmegaBOOT_168_diecimila.hex'
p195
sS'path'
p196
S'atmega'
p197
sS'unlock_bits'
p198
S'0x3F'
p199
ssS'build'
p200
(dp201
S'core'
p202
S'arduino'
p203
sS'mcu'
p204
S'atmega168'
p205
sS'f_cpu'
p206
S'16000000L'
p207
sS'variant'
p208
S'standard'
p209
ssS'name'
p210
S'Arduino Diecimila or Duemilanove w/ ATmega168'
p211
sS'upload'
p212
(dp213
S'speed'
p214
S'19200'
p215
sS'maximum_size'
p216
S'14336'
p217
sS'protocol'
p218
S'arduino'
p219
ssaa(lp220
S'nano328'
p221
a(dp222
S'bootloader'
p223
(dp224
S'extended_fuses'
p225
S'0x05'
p226
sS'high_fuses'
p227
S'0xDA'
p228
sS'low_fuses'
p229
S'0xFF'
p230
sS'lock_bits'
p231
S'0x0F'
p232
sS'file'
p233
S'ATmegaBOOT_168_atmega328.hex'
p234
sS'path'
p235
S'atmega'
p236
sS'unlock_bits'
p237
S'0x3F'
p238
ssS'build'
p239
(dp240
S'core'
p241
S'arduino'
p242
sS'mcu'
p243
S'atmega328p'
p244
sS'f_cpu'
p245
S'16000000L'
p246
sS'variant'
p247
S'eightanaloginputs'
p248
ssS'name'
p249
S'Arduino Nano w/ ATmega328'
p250
sS'upload'
p251
(dp252
S'speed'
p253
S'57600'
p254
sS'maximum_size'
p255
S'30720'
p256
sS'protocol'
p257
S'arduino'
p258
ssaa(lp259
S'nano'
p260
a(dp261
S'bootloader'
p262
(dp263
S'extended_fuses'
p264
S'0x00'
p265
sS'high_fuses'
p266
S'0xdd'
p267
sS'low_fuses'
p268
S'0xff'
p269
sS'lock_bits'
p270
S'0x0F'
p271
sS'file'
p272
S'ATmegaBOOT_168_diecimila.hex'
p273
sS'path'
p274
S'atmega'
p275
sS'unlock_bits'
p276
S'0x3F'
p277
ssS'build'
p278
(dp279
S'core'
p280
S'arduino'
p281
sS'mcu'
p282
S'atmega168'
p283
sS'f_cpu'
p284
S'16000000L'
p285
sS'variant'
p286
S'eightanaloginputs'
p287
ssS'name'
p288
S'Arduino Nano w/ ATmega168'
p289
sS'upload'
p290
(dp291
S'speed'
p292
S'19200'
p293
sS'maximum_size'
p294
S'14336'
p295
sS'protocol'
p296
S'arduino'
p297
ssaa(lp298
S'mega2560'
p299
a(dp300
S'bootloader'
p301
(dp302
S'extended_fuses'
p303
S'0xFD'
p304
sS'high_fuses'
p305
S'0xD8'
p306
sS'low_fuses'
p307
S'0xFF'
p308
sS'lock_bits'
p309
S'0x0F'
p310
sS'file'
p311
S'stk500boot_v2_mega2560.hex'
p312
sS'path'
p313
S'stk500v2'
p314
sS'unlock_bits'
p315
S'0x3F'
p316
ssS'build'
p317
(dp318
S'core'
p319
S'arduino'
p320
sS'mcu'
p321
S'atmega2560'
p322
sS'f_cpu'
p323
S'16000000L'
p324
sS'variant'
p325
S'mega'
p326
ssS'name'
p327
S'Arduino Mega 2560 or Mega ADK'
p328
sS'upload'
p329
(dp330
S'speed'
p331
S'115200'
p332
sS'maximum_size'
p333
S'258048'
p334
sS'protocol'
p335
S'wiring'
p336
ssaa(lp337
S'mega'
p338
a(dp339
S'bootloader'
p340
(dp341
S'extended_fuses'
p342
S'0xF5'
p343
sS'high_fuses'
p344
S'0xDA'
p345
sS'low_fuses'
p346
S'0xFF'
p347
sS'lock_bits'
p348
S'0x0F'
p349
sS'file'
p350
S'ATmegaBOOT_168_atmega1280.hex'
p351
sS'path'
p352
S'atmega'
p353
sS'unlock_bits'
p354
S'0x3F'
p355
ssS'build'
p356
(dp357
S'core'
p358
S'arduino'
p359
sS'mcu'
p360
S'atmega1280'
p361
sS'f_cpu'
p362
S'16000000L'
p363
sS'variant'
p364
S'mega'
p365
ssS'name'
p366
S'Arduino Mega (ATmega1280)'
p367
sS'upload'
p368
(dp369
S'speed'
p370
S'57600'
p371
sS'maximum_size'
p372
S'126976'
p373
sS'protocol'
p374
S'arduino'
p375
ssaa(lp376
S'leonardo'
p377
a(dp378
S'bootloader'
p379
(dp380
S'extended_fuses'
p381
S'0xcb'
p382
sS'high_fuses'
p383
S'0xd8'
p384
sS'low_fuses'
p385
S'0xff'
p386
sS'lock_bits'
p387
S'0x2F'
p388
sS'file'
p389
S'Caterina-Leonardo.hex'
p390
sS'path'
p391
S'caterina'
p392
sS'unlock_bits'
p393
S'0x3F'
p394
ssS'build'
p395
(dp396
S'core'
p397
S'arduino'
p398
sS'f_cpu'
p399
S'16000000L'
p400
sS'vid'
p401
S'0x2341'
p402
sS'pid'
p403
S'0x8036'
p404
sS'variant'
p405
S'leonardo'
p406
sS'mcu'
p407
S'atmega32u4'
p408
ssS'name'
p409
S'Arduino Leonardo'
p410
sS'upload'
p411
(dp412
S'speed'
p413
S'57600'
p414
sS'maximum_size'
p415
S'28672'
p416
sS'protocol'
p417
S'avr109'
p418
sS'disable_flushing'
p419
S'true'
p420
ssaa(lp421
S'esplora'
p422
a(dp423
S'bootloader'
p424
(dp425
S'extended_fuses'
p426
S'0xcb'
p427
sS'high_fuses'
p428
S'0xd8'
p429
sS'low_fuses'
p430
S'0xff'
p431
sS'lock_bits'
p432
S'0x2F'
p433
sS'file'
p434
S'Caterina-Esplora.hex'
p435
sS'path'
p436
S'caterina'
p437
sS'unlock_bits'
p438
S'0x3F'
p439
ssS'build'
p440
(dp441
S'core'
p442
S'arduino'
p443
sS'f_cpu'
p444
S'16000000L'
p445
sS'vid'
p446
S'0x2341'
p447
sS'pid'
p448
S'0x803C'
p449
sS'variant'
p450
S'leonardo'
p451
sS'mcu'
p452
S'atmega32u4'
p453
ssS'name'
p454
S'Arduino Esplora'
p455
sS'upload'
p456
(dp457
S'speed'
p458
S'57600'
p459
sS'maximum_size'
p460
S'28672'
p461
sS'protocol'
p462
S'avr109'
p463
sS'disable_flushing'
p464
S'true'
p465
ssaa(lp466
S'micro'
p467
a(dp468
S'bootloader'
p469
(dp470
S'extended_fuses'
p471
S'0xcb'
p472
sS'high_fuses'
p473
S'0xd8'
p474
sS'low_fuses'
p475
S'0xff'
p476
sS'lock_bits'
p477
S'0x2F'
p478
sS'file'
p479
S'Caterina-Micro.hex'
p480
sS'path'
p481
S'caterina'
p482
sS'unlock_bits'
p483
S'0x3F'
p484
ssS'build'
p485
(dp486
S'core'
p487
S'arduino'
p488
sS'f_cpu'
p489
S'16000000L'
p490
sS'vid'
p491
S'0x2341'
p492
sS'pid'
p493
S'0x8037'
p494
sS'variant'
p495
S'micro'
p496
sS'mcu'
p497
S'atmega32u4'
p498
ssS'name'
p499
S'Arduino Micro'
p500
sS'upload'
p501
(dp502
S'speed'
p503
S'57600'
p504
sS'maximum_size'
p505
S'28672'
p506
sS'protocol'
p507
S'avr109'
p508
sS'disable_flushing'
p509
S'true'
p510
ssaa(lp511
S'mini328'
p512
a(dp513
S'bootloader'
p514
(dp515
S'extended_fuses'
p516
S'0x05'
p517
sS'high_fuses'
p518
S'0xd8'
p519
sS'low_fuses'
p520
S'0xff'
p521
sS'lock_bits'
p522
S'0x0F'
p523
sS'file'
p524
S'optiboot_atmega328-Mini.hex'
p525
sS'path'
p526
S'optiboot'
p527
sS'unlock_bits'
p528
S'0x3F'
p529
ssS'build'
p530
(dp531
S'core'
p532
S'arduino'
p533
sS'mcu'
p534
S'atmega328p'
p535
sS'f_cpu'
p536
S'16000000L'
p537
sS'variant'
p538
S'eightanaloginputs'
p539
ssS'name'
p540
S'Arduino Mini w/ ATmega328'
p541
sS'upload'
p542
(dp543
S'speed'
p544
S'115200'
p545
sS'maximum_size'
p546
S'28672'
p547
sS'protocol'
p548
S'arduino'
p549
ssaa(lp550
S'mini'
p551
a(dp552
S'bootloader'
p553
(dp554
S'extended_fuses'
p555
S'0x00'
p556
sS'high_fuses'
p557
S'0xdd'
p558
sS'low_fuses'
p559
S'0xff'
p560
sS'lock_bits'
p561
S'0x0F'
p562
sS'file'
p563
S'ATmegaBOOT_168_ng.hex'
p564
sS'path'
p565
S'atmega'
p566
sS'unlock_bits'
p567
S'0x3F'
p568
ssS'build'
p569
(dp570
S'core'
p571
S'arduino'
p572
sS'mcu'
p573
S'atmega168'
p574
sS'f_cpu'
p575
S'16000000L'
p576
sS'variant'
p577
S'eightanaloginputs'
p578
ssS'name'
p579
S'Arduino Mini w/ ATmega168'
p580
sS'upload'
p581
(dp582
S'speed'
p583
S'19200'
p584
sS'maximum_size'
p585
S'14336'
p586
sS'protocol'
p587
S'arduino'
p588
ssaa(lp589
S'ethernet'
p590
a(dp591
S'bootloader'
p592
(dp593
S'extended_fuses'
p594
S'0x05'
p595
sS'high_fuses'
p596
S'0xde'
p597
sS'low_fuses'
p598
S'0xff'
p599
sS'lock_bits'
p600
S'0x0F'
p601
sS'file'
p602
S'optiboot_atmega328.hex'
p603
sS'path'
p604
S'optiboot'
p605
sS'unlock_bits'
p606
S'0x3F'
p607
ssS'build'
p608
(dp609
S'f_cpu'
p610
S'16000000L'
p611
sS'mcu'
p612
S'atmega328p'
p613
sS'variant'
p614
S'standard'
p615
sS'core'
p616
S'arduino'
p617
ssS'name'
p618
S'Arduino Ethernet'
p619
sS'upload'
p620
(dp621
S'speed'
p622
S'115200'
p623
sS'maximum_size'
p624
S'32256'
p625
sS'protocol'
p626
S'arduino'
p627
ssaa(lp628
S'fio'
p629
a(dp630
S'bootloader'
p631
(dp632
S'extended_fuses'
p633
S'0x05'
p634
sS'high_fuses'
p635
S'0xDA'
p636
sS'low_fuses'
p637
S'0xFF'
p638
sS'lock_bits'
p639
S'0x0F'
p640
sS'file'
p641
S'ATmegaBOOT_168_atmega328_pro_8MHz.hex'
p642
sS'path'
p643
S'arduino:atmega'
p644
sS'unlock_bits'
p645
S'0x3F'
p646
ssS'build'
p647
(dp648
S'core'
p649
S'arduino'
p650
sS'mcu'
p651
S'atmega328p'
p652
sS'f_cpu'
p653
S'8000000L'
p654
sS'variant'
p655
S'eightanaloginputs'
p656
ssS'name'
p657
S'Arduino Fio'
p658
sS'upload'
p659
(dp660
S'speed'
p661
S'57600'
p662
sS'maximum_size'
p663
S'30720'
p664
sS'protocol'
p665
S'arduino'
p666
ssaa(lp667
S'bt328'
p668
a(dp669
S'bootloader'
p670
(dp671
S'extended_fuses'
p672
S'0x05'
p673
sS'high_fuses'
p674
S'0xd8'
p675
sS'low_fuses'
p676
S'0xff'
p677
sS'lock_bits'
p678
S'0x0F'
p679
sS'file'
p680
S'ATmegaBOOT_168_atmega328_bt.hex'
p681
sS'path'
p682
S'bt'
p683
sS'unlock_bits'
p684
S'0x3F'
p685
ssS'build'
p686
(dp687
S'core'
p688
S'arduino'
p689
sS'mcu'
p690
S'atmega328p'
p691
sS'f_cpu'
p692
S'16000000L'
p693
sS'variant'
p694
S'eightanaloginputs'
p695
ssS'name'
p696
S'Arduino BT w/ ATmega328'
p697
sS'upload'
p698
(dp699
S'speed'
p700
S'19200'
p701
sS'maximum_size'
p702
S'28672'
p703
sS'protocol'
p704
S'arduino'
p705
sS'disable_flushing'
p706
S'true'
p707
ssaa(lp708
S'bt'
p709
a(dp710
S'bootloader'
p711
(dp712
S'extended_fuses'
p713
S'0x00'
p714
sS'high_fuses'
p715
S'0xdd'
p716
sS'low_fuses'
p717
S'0xff'
p718
sS'lock_bits'
p719
S'0x0F'
p720
sS'file'
p721
S'ATmegaBOOT_168.hex'
p722
sS'path'
p723
S'bt'
p724
sS'unlock_bits'
p725
S'0x3F'
p726
ssS'build'
p727
(dp728
S'core'
p729
S'arduino'
p730
sS'mcu'
p731
S'atmega168'
p732
sS'f_cpu'
p733
S'16000000L'
p734
sS'variant'
p735
S'eightanaloginputs'
p736
ssS'name'
p737
S'Arduino BT w/ ATmega168'
p738
sS'upload'
p739
(dp740
S'speed'
p741
S'19200'
p742
sS'maximum_size'
p743
S'14336'
p744
sS'protocol'
p745
S'arduino'
p746
sS'disable_flushing'
p747
S'true'
p748
ssaa(lp749
S'LilyPadUSB'
p750
a(dp751
S'bootloader'
p752
(dp753
S'extended_fuses'
p754
S'0xce'
p755
sS'high_fuses'
p756
S'0xd8'
p757
sS'low_fuses'
p758
S'0xff'
p759
sS'lock_bits'
p760
S'0x2F'
p761
sS'file'
p762
S'Caterina-LilyPadUSB.hex'
p763
sS'path'
p764
S'caterina-LilyPadUSB'
p765
sS'unlock_bits'
p766
S'0x3F'
p767
ssS'build'
p768
(dp769
S'core'
p770
S'arduino'
p771
sS'f_cpu'
p772
S'8000000L'
p773
sS'vid'
p774
S'0x1B4F'
p775
sS'pid'
p776
S'0x9208'
p777
sS'variant'
p778
S'leonardo'
p779
sS'mcu'
p780
S'atmega32u4'
p781
ssS'name'
p782
S'LilyPad Arduino USB'
p783
sS'upload'
p784
(dp785
S'speed'
p786
S'57600'
p787
sS'maximum_size'
p788
S'28672'
p789
sS'protocol'
p790
S'avr109'
p791
sS'disable_flushing'
p792
S'true'
p793
ssaa(lp794
S'lilypad328'
p795
a(dp796
S'bootloader'
p797
(dp798
S'extended_fuses'
p799
S'0x05'
p800
sS'high_fuses'
p801
S'0xDA'
p802
sS'low_fuses'
p803
S'0xFF'
p804
sS'lock_bits'
p805
S'0x0F'
p806
sS'file'
p807
S'ATmegaBOOT_168_atmega328_pro_8MHz.hex'
p808
sS'path'
p809
S'atmega'
p810
sS'unlock_bits'
p811
S'0x3F'
p812
ssS'build'
p813
(dp814
S'core'
p815
S'arduino'
p816
sS'mcu'
p817
S'atmega328p'
p818
sS'f_cpu'
p819
S'8000000L'
p820
sS'variant'
p821
S'standard'
p822
ssS'name'
p823
S'LilyPad Arduino w/ ATmega328'
p824
sS'upload'
p825
(dp826
S'speed'
p827
S'57600'
p828
sS'maximum_size'
p829
S'30720'
p830
sS'protocol'
p831
S'arduino'
p832
ssaa(lp833
S'lilypad'
p834
a(dp835
S'bootloader'
p836
(dp837
S'extended_fuses'
p838
S'0x00'
p839
sS'high_fuses'
p840
S'0xdd'
p841
sS'low_fuses'
p842
S'0xe2'
p843
sS'lock_bits'
p844
S'0x0F'
p845
sS'file'
p846
S'LilyPadBOOT_168.hex'
p847
sS'path'
p848
S'lilypad'
p849
sS'unlock_bits'
p850
S'0x3F'
p851
ssS'build'
p852
(dp853
S'core'
p854
S'arduino'
p855
sS'mcu'
p856
S'atmega168'
p857
sS'f_cpu'
p858
S'8000000L'
p859
sS'variant'
p860
S'standard'
p861
ssS'name'
p862
S'LilyPad Arduino w/ ATmega168'
p863
sS'upload'
p864
(dp865
S'speed'
p866
S'19200'
p867
sS'maximum_size'
p868
S'14336'
p869
sS'protocol'
p870
S'arduino'
p871
ssaa(lp872
S'pro5v328'
p873
a(dp874
S'bootloader'
p875
(dp876
S'extended_fuses'
p877
S'0x05'
p878
sS'high_fuses'
p879
S'0xDA'
p880
sS'low_fuses'
p881
S'0xFF'
p882
sS'lock_bits'
p883
S'0x0F'
p884
sS'file'
p885
S'ATmegaBOOT_168_atmega328.hex'
p886
sS'path'
p887
S'atmega'
p888
sS'unlock_bits'
p889
S'0x3F'
p890
ssS'build'
p891
(dp892
S'core'
p893
S'arduino'
p894
sS'mcu'
p895
S'atmega328p'
p896
sS'f_cpu'
p897
S'16000000L'
p898
sS'variant'
p899
S'standard'
p900
ssS'name'
p901
S'Arduino Pro or Pro Mini (5V, 16 MHz) w/ ATmega328'
p902
sS'upload'
p903
(dp904
S'speed'
p905
S'57600'
p906
sS'maximum_size'
p907
S'30720'
p908
sS'protocol'
p909
S'arduino'
p910
ssaa(lp911
S'pro5v'
p912
a(dp913
S'bootloader'
p914
(dp915
S'extended_fuses'
p916
S'0x00'
p917
sS'high_fuses'
p918
S'0xdd'
p919
sS'low_fuses'
p920
S'0xff'
p921
sS'lock_bits'
p922
S'0x0F'
p923
sS'file'
p924
S'ATmegaBOOT_168_diecimila.hex'
p925
sS'path'
p926
S'atmega'
p927
sS'unlock_bits'
p928
S'0x3F'
p929
ssS'build'
p930
(dp931
S'core'
p932
S'arduino'
p933
sS'mcu'
p934
S'atmega168'
p935
sS'f_cpu'
p936
S'16000000L'
p937
sS'variant'
p938
S'standard'
p939
ssS'name'
p940
S'Arduino Pro or Pro Mini (5V, 16 MHz) w/ ATmega168'
p941
sS'upload'
p942
(dp943
S'speed'
p944
S'19200'
p945
sS'maximum_size'
p946
S'14336'
p947
sS'protocol'
p948
S'arduino'
p949
ssaa(lp950
S'pro328'
p951
a(dp952
S'bootloader'
p953
(dp954
S'extended_fuses'
p955
S'0x05'
p956
sS'high_fuses'
p957
S'0xDA'
p958
sS'low_fuses'
p959
S'0xFF'
p960
sS'lock_bits'
p961
S'0x0F'
p962
sS'file'
p963
S'ATmegaBOOT_168_atmega328_pro_8MHz.hex'
p964
sS'path'
p965
S'atmega'
p966
sS'unlock_bits'
p967
S'0x3F'
p968
ssS'build'
p969
(dp970
S'core'
p971
S'arduino'
p972
sS'mcu'
p973
S'atmega328p'
p974
sS'f_cpu'
p975
S'8000000L'
p976
sS'variant'
p977
S'standard'
p978
ssS'name'
p979
S'Arduino Pro or Pro Mini (3.3V, 8 MHz) w/ ATmega328'
p980
sS'upload'
p981
(dp982
S'speed'
p983
S'57600'
p984
sS'maximum_size'
p985
S'30720'
p986
sS'protocol'
p987
S'arduino'
p988
ssaa(lp989
S'pro'
p990
a(dp991
S'bootloader'
p992
(dp993
S'extended_fuses'
p994
S'0x00'
p995
sS'high_fuses'
p996
S'0xdd'
p997
sS'low_fuses'
p998
S'0xc6'
p999
sS'lock_bits'
p1000
S'0x0F'
p1001
sS'file'
p1002
S'ATmegaBOOT_168_pro_8MHz.hex'
p1003
sS'path'
p1004
S'atmega'
p1005
sS'unlock_bits'
p1006
S'0x3F'
p1007
ssS'build'
p1008
(dp1009
S'core'
p1010
S'arduino'
p1011
sS'mcu'
p1012
S'atmega168'
p1013
sS'f_cpu'
p1014
S'8000000L'
p1015
sS'variant'
p1016
S'standard'
p1017
ssS'name'
p1018
S'Arduino Pro or Pro Mini (3.3V, 8 MHz) w/ ATmega168'
p1019
sS'upload'
p1020
(dp1021
S'speed'
p1022
S'19200'
p1023
sS'maximum_size'
p1024
S'14336'
p1025
sS'protocol'
p1026
S'arduino'
p1027
ssaa(lp1028
S'atmega168'
p1029
a(dp1030
S'bootloader'
p1031
(dp1032
S'extended_fuses'
p1033
S'0x00'
p1034
sS'high_fuses'
p1035
S'0xdd'
p1036
sS'low_fuses'
p1037
S'0xff'
p1038
sS'lock_bits'
p1039
S'0x0F'
p1040
sS'file'
p1041
S'ATmegaBOOT_168_ng.hex'
p1042
sS'path'
p1043
S'atmega'
p1044
sS'unlock_bits'
p1045
S'0x3F'
p1046
ssS'build'
p1047
(dp1048
S'core'
p1049
S'arduino'
p1050
sS'mcu'
p1051
S'atmega168'
p1052
sS'f_cpu'
p1053
S'16000000L'
p1054
sS'variant'
p1055
S'standard'
p1056
ssS'name'
p1057
S'Arduino NG or older w/ ATmega168'
p1058
sS'upload'
p1059
(dp1060
S'speed'
p1061
S'19200'
p1062
sS'maximum_size'
p1063
S'14336'
p1064
sS'protocol'
p1065
S'arduino'
p1066
ssaa(lp1067
S'atmega8'
p1068
a(dp1069
S'bootloader'
p1070
(dp1071
S'high_fuses'
p1072
S'0xca'
p1073
sS'low_fuses'
p1074
S'0xdf'
p1075
sS'lock_bits'
p1076
S'0x0F'
p1077
sS'file'
p1078
S'ATmegaBOOT-prod-firmware-2009-11-07.hex'
p1079
sS'path'
p1080
S'atmega8'
p1081
sS'unlock_bits'
p1082
S'0x3F'
p1083
ssS'build'
p1084
(dp1085
S'core'
p1086
S'arduino'
p1087
sS'mcu'
p1088
S'atmega8'
p1089
sS'f_cpu'
p1090
S'16000000L'
p1091
sS'variant'
p1092
S'standard'
p1093
ssS'name'
p1094
S'Arduino NG or older w/ ATmega8'
p1095
sS'upload'
p1096
(dp1097
S'speed'
p1098
S'19200'
p1099
sS'maximum_size'
p1100
S'7168'
p1101
sS'protocol'
p1102
S'arduino'
p1103
ssaa(lp1104
S'robotControl'
p1105
a(dp1106
S'bootloader'
p1107
(dp1108
S'extended_fuses'
p1109
S'0xcb'
p1110
sS'high_fuses'
p1111
S'0xd8'
p1112
sS'low_fuses'
p1113
S'0xff'
p1114
sS'lock_bits'
p1115
S'0x2F'
p1116
sS'file'
p1117
S'Caterina-Robot-Control.hex'
p1118
sS'path'
p1119
S'caterina-Arduino_Robot'
p1120
sS'unlock_bits'
p1121
S'0x3F'
p1122
ssS'build'
p1123
(dp1124
S'core'
p1125
S'robot'
p1126
sS'f_cpu'
p1127
S'16000000L'
p1128
sS'vid'
p1129
S'0x2341'
p1130
sS'pid'
p1131
S'0x8038'
p1132
sS'variant'
p1133
S'robot_control'
p1134
sS'mcu'
p1135
S'atmega32u4'
p1136
ssS'name'
p1137
S'Arduino Robot Control'
p1138
sS'upload'
p1139
(dp1140
S'speed'
p1141
S'57600'
p1142
sS'maximum_size'
p1143
S'28672'
p1144
sS'protocol'
p1145
S'avr109'
p1146
sS'disable_flushing'
p1147
S'true'
p1148
ssaa(lp1149
S'robotMotor'
p1150
a(dp1151
S'bootloader'
p1152
(dp1153
S'extended_fuses'
p1154
S'0xcb'
p1155
sS'high_fuses'
p1156
S'0xd8'
p1157
sS'low_fuses'
p1158
S'0xff'
p1159
sS'lock_bits'
p1160
S'0x2F'
p1161
sS'file'
p1162
S'Caterina-Robot-Motor.hex'
p1163
sS'path'
p1164
S'caterina-Arduino_Robot'
p1165
sS'unlock_bits'
p1166
S'0x3F'
p1167
ssS'build'
p1168
(dp1169
S'core'
p1170
S'robot'
p1171
sS'f_cpu'
p1172
S'16000000L'
p1173
sS'vid'
p1174
S'0x2341'
p1175
sS'pid'
p1176
S'0x8039'
p1177
sS'variant'
p1178
S'robot_motor'
p1179
sS'mcu'
p1180
S'atmega32u4'
p1181
ssS'name'
p1182
S'Arduino Robot Motor'
p1183
sS'upload'
p1184
(dp1185
S'speed'
p1186
S'57600'
p1187
sS'maximum_size'
p1188
S'28672'
p1189
sS'protocol'
p1190
S'avr109'
p1191
sS'disable_flushing'
p1192
S'true'
p1193
ssaatp1194
Rp1195
(dp1196
S'default'
p1197
S'uno'
p1198
sbtp1199
a(S'cxx'
p1200
S'/Applications/Arduino.app/Contents/Resources/Java/hardware/tools/avr/bin/avr-g++'
p1201
tp1202
a.